; ModuleID = '34/2657.c'
source_filename = "34/2657.c"
target datalayout = "e-m:e-p270:32:32-p271:32:32-p272:64:64-i64:64-f80:128-n8:16:32:64-S128"
target triple = "x86_64-pc-linux-gnu"

@.str = private unnamed_addr constant [3 x i8] c"%d\00", align 1
@.str.1 = private unnamed_addr constant [9 x i8] c"%d/2=%d\0A\00", align 1
@.str.2 = private unnamed_addr constant [11 x i8] c"%d*3+1=%d\0A\00", align 1
@.str.3 = private unnamed_addr constant [4 x i8] c"End\00", align 1

; Function Attrs: noinline nounwind uwtable
define dso_local void @main() #0 {
  %1 = alloca i32, align 4
  %2 = alloca i32, align 4
  %3 = alloca i32, align 4
  %4 = alloca i32, align 4
  %5 = alloca i32, align 4
  %6 = call i32 (i8*, ...) @__isoc99_scanf(i8* getelementptr inbounds ([3 x i8], [3 x i8]* @.str, i64 0, i64 0), i32* %1)
  br label %7

7:                                                ; preds = %34, %0
  %8 = load i32, i32* %1, align 4
  %9 = icmp ne i32 %8, 1
  br i1 %9, label %10, label %35

10:                                               ; preds = %7
  %11 = load i32, i32* %1, align 4
  %12 = srem i32 %11, 2
  store i32 %12, i32* %5, align 4
  %13 = load i32, i32* %5, align 4
  %14 = icmp eq i32 %13, 0
  br i1 %14, label %15, label %22

15:                                               ; preds = %10
  %16 = load i32, i32* %1, align 4
  %17 = load i32, i32* %1, align 4
  %18 = sdiv i32 %17, 2
  %19 = call i32 (i8*, ...) @printf(i8* getelementptr inbounds ([9 x i8], [9 x i8]* @.str.1, i64 0, i64 0), i32 %16, i32 %18)
  %20 = load i32, i32* %1, align 4
  %21 = sdiv i32 %20, 2
  store i32 %21, i32* %1, align 4
  br label %22

22:                                               ; preds = %15, %10
  %23 = load i32, i32* %5, align 4
  %24 = icmp ne i32 %23, 0
  br i1 %24, label %25, label %34

25:                                               ; preds = %22
  %26 = load i32, i32* %1, align 4
  %27 = load i32, i32* %1, align 4
  %28 = mul nsw i32 %27, 3
  %29 = add nsw i32 %28, 1
  %30 = call i32 (i8*, ...) @printf(i8* getelementptr inbounds ([11 x i8], [11 x i8]* @.str.2, i64 0, i64 0), i32 %26, i32 %29)
  %31 = load i32, i32* %1, align 4
  %32 = mul nsw i32 %31, 3
  %33 = add nsw i32 %32, 1
  store i32 %33, i32* %1, align 4
  br label %34

34:                                               ; preds = %25, %22
  br label %7

35:                                               ; preds = %7
  %36 = call i32 (i8*, ...) @printf(i8* getelementptr inbounds ([4 x i8], [4 x i8]* @.str.3, i64 0, i64 0))
  ret void
}

declare dso_local i32 @__isoc99_scanf(i8*, ...) #1

declare dso_local i32 @printf(i8*, ...) #1


!llvm.module.flags = !{!0}
!llvm.ident = !{!1}

!0 = !{i32 1, !"wchar_size", i32 4}
!1 = !{!"clang version 10.0.0-4ubuntu1 "}
